target datalayout = "e-m:e-p270:32:32-p271:32:32-p272:64:64-i64:64-i128:128-f80:128-n8:16:32:64-S128"
target triple = "x86_64-pc-linux-gnu"

%struct.tjscalingfactor = type { i32, i32 }
%struct.tjregion = type { i32, i32, i32, i32 }
%struct._tjinstance = type { %struct.jpeg_compress_struct, %struct.jpeg_decompress_struct, %struct.my_error_mgr, i32, [200 x i8], i32, i32, i32, i32, i32, i32, i32, i32, i32, i32, i32, i32, i32, i32, i32, i32, i32, i32, i32, i32, i32, i32, i32, %struct.tjscalingfactor, %struct.tjregion, i32, i32 }
%struct.jpeg_compress_struct = type { ptr, ptr, ptr, ptr, i32, i32, ptr, i32, i32, i32, i32, double, i32, i32, i32, ptr, [4 x ptr], [4 x ptr], [4 x ptr], [16 x i8], [16 x i8], [16 x i8], i32, ptr, i32, i32, i32, i32, i32, i32, i32, i32, i32, i8, i8, i8, i16, i16, i32, i32, i32, i32, i32, i32, i32, [4 x ptr], i32, i32, i32, [10 x i32], i32, i32, i32, i32, ptr, ptr, ptr, ptr, ptr, ptr, ptr, ptr, ptr, ptr, i32 }
%struct.jpeg_decompress_struct = type { ptr, ptr, ptr, ptr, i32, i32, ptr, i32, i32, i32, i32, i32, i32, i32, double, i32, i32, i32, i32, i32, i32, i32, i32, i32, i32, i32, i32, i32, i32, i32, i32, i32, i32, ptr, i32, i32, i32, i32, i32, ptr, [4 x ptr], [4 x ptr], [4 x ptr], i32, ptr, i32, i32, [16 x i8], [16 x i8], [16 x i8], i32, i32, i8, i8, i8, i16, i16, i32, i8, i32, ptr, i32, i32, i32, i32, ptr, i32, [4 x ptr], i32, i32, i32, [10 x i32], i32, i32, i32, i32, i32, ptr, ptr, ptr, ptr, ptr, ptr, ptr, ptr, ptr, ptr, ptr }
%struct.my_error_mgr = type { %struct.jpeg_error_mgr, [1 x %struct.__jmp_buf_tag], ptr, i32, i32 }
%struct.jpeg_error_mgr = type { ptr, ptr, ptr, ptr, ptr, i32, %union.anon, i32, i64, ptr, i32, ptr, i32, i32 }
%union.anon = type { [8 x i32], [48 x i8] }
%struct.__jmp_buf_tag = type { [8 x i64], i32, %struct.__sigset_t }
%struct.__sigset_t = type { [16 x i64] }

@_tjInitCompress.buffer = internal global [1 x i8] zeroinitializer, align 1

; Function Attrs: nounwind uwtable
define internal ptr @_tjInitCompress(ptr noundef %0) #0 {
  %2 = alloca ptr, align 8
  %3 = alloca ptr, align 8
  %4 = alloca ptr, align 8
  %5 = alloca i64, align 8
  store ptr %0, ptr %3, align 8
  store ptr @_tjInitCompress.buffer, ptr %4, align 8
  store i64 1, ptr %5, align 8
  %6 = load ptr, ptr %3, align 8
  %7 = getelementptr inbounds %struct._tjinstance, ptr %6, i32 0, i32 2
  %8 = getelementptr inbounds %struct.my_error_mgr, ptr %7, i32 0, i32 0
  %9 = call ptr @jpeg_std_error(ptr noundef %8)
  %10 = load ptr, ptr %3, align 8
  %11 = getelementptr inbounds %struct._tjinstance, ptr %10, i32 0, i32 0
  %12 = getelementptr inbounds %struct.jpeg_compress_struct, ptr %11, i32 0, i32 0
  store ptr %9, ptr %12, align 8
  %13 = load ptr, ptr %3, align 8
  %14 = getelementptr inbounds %struct._tjinstance, ptr %13, i32 0, i32 2
  %15 = getelementptr inbounds %struct.my_error_mgr, ptr %14, i32 0, i32 0
  %16 = getelementptr inbounds %struct.jpeg_error_mgr, ptr %15, i32 0, i32 0
  store ptr @my_error_exit, ptr %16, align 8
  %17 = load ptr, ptr %3, align 8
  %18 = getelementptr inbounds %struct._tjinstance, ptr %17, i32 0, i32 2
  %19 = getelementptr inbounds %struct.my_error_mgr, ptr %18, i32 0, i32 0
  %20 = getelementptr inbounds %struct.jpeg_error_mgr, ptr %19, i32 0, i32 2
  store ptr @my_output_message, ptr %20, align 8
  %21 = load ptr, ptr %3, align 8
  %22 = getelementptr inbounds %struct._tjinstance, ptr %21, i32 0, i32 2
  %23 = getelementptr inbounds %struct.my_error_mgr, ptr %22, i32 0, i32 0
  %24 = getelementptr inbounds %struct.jpeg_error_mgr, ptr %23, i32 0, i32 1
  %25 = load ptr, ptr %24, align 8
  %26 = load ptr, ptr %3, align 8
  %27 = getelementptr inbounds %struct._tjinstance, ptr %26, i32 0, i32 2
  %28 = getelementptr inbounds %struct.my_error_mgr, ptr %27, i32 0, i32 2
  store ptr %25, ptr %28, align 8
  %29 = load ptr, ptr %3, align 8
  %30 = getelementptr inbounds %struct._tjinstance, ptr %29, i32 0, i32 2
  %31 = getelementptr inbounds %struct.my_error_mgr, ptr %30, i32 0, i32 0
  %32 = getelementptr inbounds %struct.jpeg_error_mgr, ptr %31, i32 0, i32 1
  store ptr @my_emit_message, ptr %32, align 8
  %33 = load ptr, ptr %3, align 8
  %34 = getelementptr inbounds %struct._tjinstance, ptr %33, i32 0, i32 2
  %35 = getelementptr inbounds %struct.my_error_mgr, ptr %34, i32 0, i32 0
  %36 = getelementptr inbounds %struct.jpeg_error_mgr, ptr %35, i32 0, i32 11
  store ptr @turbojpeg_message_table, ptr %36, align 8
  %37 = load ptr, ptr %3, align 8
  %38 = getelementptr inbounds %struct._tjinstance, ptr %37, i32 0, i32 2
  %39 = getelementptr inbounds %struct.my_error_mgr, ptr %38, i32 0, i32 0
  %40 = getelementptr inbounds %struct.jpeg_error_mgr, ptr %39, i32 0, i32 12
  store i32 1000, ptr %40, align 8
  %41 = load ptr, ptr %3, align 8
  %42 = getelementptr inbounds %struct._tjinstance, ptr %41, i32 0, i32 2
  %43 = getelementptr inbounds %struct.my_error_mgr, ptr %42, i32 0, i32 0
  %44 = getelementptr inbounds %struct.jpeg_error_mgr, ptr %43, i32 0, i32 13
  store i32 1048, ptr %44, align 4
  %45 = load ptr, ptr %3, align 8
  %46 = getelementptr inbounds %struct._tjinstance, ptr %45, i32 0, i32 2
  %47 = getelementptr inbounds %struct.my_error_mgr, ptr %46, i32 0, i32 1
  %48 = getelementptr inbounds [1 x %struct.__jmp_buf_tag], ptr %47, i64 0, i64 0
  %49 = call i32 @_setjmp(ptr noundef %48) #13
  %50 = icmp ne i32 %49, 0
  br i1 %50, label %51, label %53

51:                                               ; preds = %1
  %52 = load ptr, ptr %3, align 8
  call void @free(ptr noundef %52) #11
  store ptr null, ptr %2, align 8
  br label %63

53:                                               ; preds = %1
  %54 = load ptr, ptr %3, align 8
  %55 = getelementptr inbounds %struct._tjinstance, ptr %54, i32 0, i32 0
  call void @jpeg_CreateCompress(ptr noundef %55, i32 noundef 62, i64 noundef 520)
  %56 = load ptr, ptr %3, align 8
  %57 = getelementptr inbounds %struct._tjinstance, ptr %56, i32 0, i32 0
  call void @jpeg_mem_dest_tj(ptr noundef %57, ptr noundef %4, ptr noundef %5, i32 noundef 0)
  %58 = load ptr, ptr %3, align 8
  %59 = getelementptr inbounds %struct._tjinstance, ptr %58, i32 0, i32 3
  %60 = load i32, ptr %59, align 8
  %61 = or i32 %60, 1
  store i32 %61, ptr %59, align 8
  %62 = load ptr, ptr %3, align 8
  store ptr %62, ptr %2, align 8
  br label %63

63:                                               ; preds = %53, %51
  %64 = load ptr, ptr %2, align 8
  ret ptr %64
}