; Function Attrs: nounwind uwtable
define internal fastcc noundef ptr @_tjInitCompress(ptr noundef %0) unnamed_addr #0 {
  %2 = alloca ptr, align 8
  %3 = alloca i64, align 8
  store ptr @_tjInitCompress.buffer, ptr %2, align 8
  store i64 1, ptr %3, align 8
  %4 = getelementptr inbounds i8, ptr %0, i64 1152
  %5 = call ptr @jpeg_std_error(ptr noundef nonnull %4) #26
  store ptr %5, ptr %0, align 8
  store ptr @my_error_exit, ptr %4, align 8
  %6 = getelementptr inbounds i8, ptr %0, i64 1168
  store ptr @my_output_message, ptr %6, align 8
  %7 = getelementptr inbounds i8, ptr %0, i64 1160
  %8 = load ptr, ptr %7, align 8
  %9 = getelementptr inbounds i8, ptr %0, i64 1520
  store ptr %8, ptr %9, align 8
  store ptr @my_emit_message, ptr %7, align 8
  %10 = getelementptr inbounds i8, ptr %0, i64 1304
  store ptr @turbojpeg_message_table, ptr %10, align 8
  %11 = getelementptr inbounds i8, ptr %0, i64 1312
  store i32 1000, ptr %11, align 8
  %12 = getelementptr inbounds i8, ptr %0, i64 1316
  store i32 1048, ptr %12, align 4
  %13 = getelementptr inbounds i8, ptr %0, i64 1320
  %14 = call i32 @_setjmp(ptr noundef nonnull %13) #27
  %.not = icmp eq i32 %14, 0
  br i1 %.not, label %16, label %15

15:                                               ; preds = %1
  call void @free(ptr noundef nonnull %0) #26
  br label %20

16:                                               ; preds = %1
  call void @jpeg_CreateCompress(ptr noundef nonnull %0, i32 noundef 62, i64 noundef 520) #26
  call void @jpeg_mem_dest_tj(ptr noundef nonnull %0, ptr noundef nonnull %2, ptr noundef nonnull %3, i32 noundef 0) #26
  %17 = getelementptr inbounds i8, ptr %0, i64 1536
  %18 = load i32, ptr %17, align 8
  %19 = or i32 %18, 1
  store i32 %19, ptr %17, align 8
  br label %20

20:                                               ; preds = %16, %15
  %.0 = phi ptr [ null, %15 ], [ %0, %16 ]
  ret ptr %.0
}